; Function Attrs: nounwind uwtable
define range(i32 0, 2) i32 @Sfm_NtkCollectTfi_rec(ptr noundef readonly captures(none) %0, i32 noundef %1, ptr noundef captures(none) %2) local_unnamed_addr #2 {
  %4 = getelementptr i8, ptr %0, i64 208
  %.val24 = load ptr, ptr %4, align 8, !tbaa !21
  %5 = getelementptr i8, ptr %0, i64 232
  %.val25 = load i32, ptr %5, align 8, !tbaa !28
  %6 = sext i32 %1 to i64
  %7 = getelementptr inbounds i32, ptr %.val24, i64 %6
  %8 = load i32, ptr %7, align 4, !tbaa !22
  %.not = icmp eq i32 %8, %.val25
  br i1 %.not, label %.loopexit, label %9

9:                                                ; preds = %3
  store i32 %.val25, ptr %7, align 4, !tbaa !22
  %10 = getelementptr i8, ptr %0, i64 64
  %.val2228 = load ptr, ptr %10, align 8, !tbaa !19
  %11 = getelementptr %struct.Vec_Int_t_, ptr %.val2228, i64 %6, i32 1
  %.val1.i29 = load i32, ptr %11, align 4, !tbaa !20
  %12 = icmp sgt i32 %.val1.i29, 0
  br i1 %12, label %.lr.ph, label %.critedge

13:                                               ; preds = %.lr.ph
  %indvars.iv.next = add nuw nsw i64 %indvars.iv, 1
  %.val22 = load ptr, ptr %10, align 8, !tbaa !19
  %14 = getelementptr %struct.Vec_Int_t_, ptr %.val22, i64 %6, i32 1
  %.val1.i = load i32, ptr %14, align 4, !tbaa !20
  %15 = sext i32 %.val1.i to i64
  %16 = icmp slt i64 %indvars.iv.next, %15
  br i1 %16, label %.lr.ph, label %.critedge, !llvm.loop !50

.lr.ph:                                           ; preds = %9, %13
  %indvars.iv = phi i64 [ %indvars.iv.next, %13 ], [ 0, %9 ]
  %.val2231 = phi ptr [ %.val22, %13 ], [ %.val2228, %9 ]
  %17 = getelementptr %struct.Vec_Int_t_, ptr %.val2231, i64 %6, i32 2
  %.val2.i = load ptr, ptr %17, align 8, !tbaa !21
  %18 = getelementptr inbounds nuw i32, ptr %.val2.i, i64 %indvars.iv
  %19 = load i32, ptr %18, align 4, !tbaa !22
  %20 = tail call i32 @Sfm_NtkCollectTfi_rec(ptr noundef nonnull %0, i32 noundef %19, ptr noundef %2)
  %.not21 = icmp eq i32 %20, 0
  br i1 %.not21, label %13, label %.loopexit

.critedge:                                        ; preds = %13, %9
  %21 = getelementptr inbounds nuw i8, ptr %2, i64 4
  %22 = load i32, ptr %21, align 4, !tbaa !20
  %23 = load i32, ptr %2, align 8, !tbaa !32
  %24 = icmp eq i32 %22, %23
  br i1 %24, label %25, label %.Vec_IntGrow.exit10_crit_edge.i

.Vec_IntGrow.exit10_crit_edge.i:                  ; preds = %.critedge
  %.phi.trans.insert.i = getelementptr inbounds nuw i8, ptr %2, i64 8
  %.pre.i = load ptr, ptr %.phi.trans.insert.i, align 8, !tbaa !21
  br label %Vec_IntPush.exit

25:                                               ; preds = %.critedge
  %26 = icmp slt i32 %22, 16
  br i1 %26, label %27, label %35

27:                                               ; preds = %25
  %28 = getelementptr inbounds nuw i8, ptr %2, i64 8
  %29 = load ptr, ptr %28, align 8, !tbaa !21
  %.not9.i.i = icmp eq ptr %29, null
  br i1 %.not9.i.i, label %32, label %30

30:                                               ; preds = %27
  %31 = tail call dereferenceable_or_null(64) ptr @realloc(ptr noundef nonnull %29, i64 noundef 64) #8
  br label %Vec_IntGrow.exit.i

32:                                               ; preds = %27
  %33 = tail call noalias dereferenceable_or_null(64) ptr @malloc(i64 noundef 64) #9
  br label %Vec_IntGrow.exit.i

Vec_IntGrow.exit.i:                               ; preds = %32, %30
  %34 = phi ptr [ %31, %30 ], [ %33, %32 ]
  store ptr %34, ptr %28, align 8, !tbaa !21
  store i32 16, ptr %2, align 8, !tbaa !32
  br label %Vec_IntPush.exit

35:                                               ; preds = %25
  %36 = shl nuw nsw i32 %22, 1
  %37 = getelementptr inbounds nuw i8, ptr %2, i64 8
  %38 = load ptr, ptr %37, align 8, !tbaa !21
  %.not9.i9.i = icmp eq ptr %38, null
  %39 = zext nneg i32 %36 to i64
  %40 = shl nuw nsw i64 %39, 2
  br i1 %.not9.i9.i, label %43, label %41

41:                                               ; preds = %35
  %42 = tail call ptr @realloc(ptr noundef nonnull %38, i64 noundef %40) #8
  br label %45

43:                                               ; preds = %35
  %44 = tail call noalias ptr @malloc(i64 noundef %40) #9
  br label %45

45:                                               ; preds = %43, %41
  %46 = phi ptr [ %42, %41 ], [ %44, %43 ]
  store ptr %46, ptr %37, align 8, !tbaa !21
  store i32 %36, ptr %2, align 8, !tbaa !32
  br label %Vec_IntPush.exit

Vec_IntPush.exit:                                 ; preds = %.Vec_IntGrow.exit10_crit_edge.i, %Vec_IntGrow.exit.i, %45
  %47 = phi ptr [ %.pre.i, %.Vec_IntGrow.exit10_crit_edge.i ], [ %46, %45 ], [ %34, %Vec_IntGrow.exit.i ]
  %48 = load i32, ptr %21, align 4, !tbaa !20
  %49 = add nsw i32 %48, 1
  store i32 %49, ptr %21, align 4, !tbaa !20
  %50 = sext i32 %48 to i64
  %51 = getelementptr inbounds i32, ptr %47, i64 %50
  store i32 %1, ptr %51, align 4, !tbaa !22
  %52 = load ptr, ptr %0, align 8, !tbaa !43
  %53 = getelementptr inbounds nuw i8, ptr %52, i64 32
  %54 = load i32, ptr %53, align 4, !tbaa !51
  %.not20 = icmp eq i32 %54, 0
  br i1 %.not20, label %.loopexit, label %55

55:                                               ; preds = %Vec_IntPush.exit
  %.val = load i32, ptr %21, align 4, !tbaa !20
  %56 = icmp sgt i32 %.val, %54
  %57 = zext i1 %56 to i32
  br label %.loopexit

.loopexit:                                        ; preds = %.lr.ph, %Vec_IntPush.exit, %55, %3
  %.0 = phi i32 [ 0, %3 ], [ 0, %Vec_IntPush.exit ], [ %57, %55 ], [ 1, %.lr.ph ]
  ret i32 %.0
}